target datalayout = "e-m:e-p270:32:32-p271:32:32-p272:64:64-i64:64-i128:128-f80:128-n8:16:32:64-S128"
target triple = "x86_64-pc-linux-gnu"

%struct._zend_refcounted_h = type { i32, %union.anon.3 }
%union.anon.3 = type { i32 }
%struct._zval_struct = type { %union._zend_value, %union.anon, %union.anon.2 }
%union._zend_value = type { i64 }
%union.anon = type { i32 }
%union.anon.2 = type { i32 }
%struct._zend_attribute = type { ptr, ptr, i32, i32, i32, i32, [1 x %struct.zend_attribute_arg] }
%struct.zend_attribute_arg = type { ptr, %struct._zval_struct }

; Function Attrs: nounwind uwtable
define internal void @attr_free(ptr noundef %0) #0 {
  %2 = alloca ptr, align 8
  %3 = alloca ptr, align 8
  %4 = alloca ptr, align 8
  %5 = alloca i32, align 4
  %6 = alloca i32, align 4
  %7 = alloca ptr, align 8
  %8 = alloca i32, align 4
  %9 = alloca i32, align 4
  %10 = alloca ptr, align 8
  %11 = alloca i32, align 4
  %12 = alloca i32, align 4
  %13 = alloca ptr, align 8
  %14 = alloca ptr, align 8
  %15 = alloca ptr, align 8
  %16 = alloca i8, align 1
  %17 = alloca i32, align 4
  store ptr %0, ptr %14, align 8
  %18 = load ptr, ptr %14, align 8
  %19 = getelementptr inbounds %struct._zval_struct, ptr %18, i32 0, i32 0
  %20 = load ptr, ptr %19, align 8
  store ptr %20, ptr %15, align 8
  %21 = load ptr, ptr %15, align 8
  %22 = getelementptr inbounds %struct._zend_attribute, ptr %21, i32 0, i32 2
  %23 = load i32, ptr %22, align 8
  %24 = and i32 %23, 1
  %25 = icmp ne i32 %24, 0
  %26 = zext i1 %25 to i8
  store i8 %26, ptr %16, align 1
  %27 = load ptr, ptr %15, align 8
  %28 = getelementptr inbounds %struct._zend_attribute, ptr %27, i32 0, i32 0
  %29 = load ptr, ptr %28, align 8
  store ptr %29, ptr %7, align 8
  %30 = load ptr, ptr %7, align 8
  %31 = getelementptr inbounds %struct._zend_refcounted_h, ptr %30, i32 0, i32 1
  %32 = load i32, ptr %31, align 4
  store i32 %32, ptr %5, align 4
  %33 = load i32, ptr %5, align 4
  %34 = and i32 %33, 1008
  %35 = and i32 %34, 64
  %36 = icmp ne i32 %35, 0
  br i1 %36, label %60, label %37

37:                                               ; preds = %1
  %38 = load ptr, ptr %7, align 8
  store ptr %38, ptr %4, align 8
  %39 = load ptr, ptr %4, align 8
  %40 = load i32, ptr %39, align 4
  %41 = icmp ugt i32 %40, 0
  call void @llvm.assume(i1 %41)
  %42 = load ptr, ptr %4, align 8
  %43 = load i32, ptr %42, align 4
  %44 = add i32 %43, -1
  store i32 %44, ptr %42, align 4
  %45 = icmp eq i32 %44, 0
  br i1 %45, label %46, label %59

46:                                               ; preds = %37
  %47 = load ptr, ptr %7, align 8
  %48 = getelementptr inbounds %struct._zend_refcounted_h, ptr %47, i32 0, i32 1
  %49 = load i32, ptr %48, align 4
  store i32 %49, ptr %6, align 4
  %50 = load i32, ptr %6, align 4
  %51 = and i32 %50, 1008
  %52 = and i32 %51, 128
  %53 = icmp ne i32 %52, 0
  br i1 %53, label %54, label %56

54:                                               ; preds = %46
  %55 = load ptr, ptr %7, align 8
  call void @free(ptr noundef %55) #12
  br label %58

56:                                               ; preds = %46
  %57 = load ptr, ptr %7, align 8
  call void @_efree(ptr noundef %57) #12
  br label %58

58:                                               ; preds = %56, %54
  br label %59

59:                                               ; preds = %58, %37
  br label %60

60:                                               ; preds = %59, %1
  %61 = load ptr, ptr %15, align 8
  %62 = getelementptr inbounds %struct._zend_attribute, ptr %61, i32 0, i32 1
  %63 = load ptr, ptr %62, align 8
  store ptr %63, ptr %10, align 8
  %64 = load ptr, ptr %10, align 8
  %65 = getelementptr inbounds %struct._zend_refcounted_h, ptr %64, i32 0, i32 1
  %66 = load i32, ptr %65, align 4
  store i32 %66, ptr %8, align 4
  %67 = load i32, ptr %8, align 4
  %68 = and i32 %67, 1008
  %69 = and i32 %68, 64
  %70 = icmp ne i32 %69, 0
  br i1 %70, label %94, label %71

71:                                               ; preds = %60
  %72 = load ptr, ptr %10, align 8
  store ptr %72, ptr %3, align 8
  %73 = load ptr, ptr %3, align 8
  %74 = load i32, ptr %73, align 4
  %75 = icmp ugt i32 %74, 0
  call void @llvm.assume(i1 %75)
  %76 = load ptr, ptr %3, align 8
  %77 = load i32, ptr %76, align 4
  %78 = add i32 %77, -1
  store i32 %78, ptr %76, align 4
  %79 = icmp eq i32 %78, 0
  br i1 %79, label %80, label %93

80:                                               ; preds = %71
  %81 = load ptr, ptr %10, align 8
  %82 = getelementptr inbounds %struct._zend_refcounted_h, ptr %81, i32 0, i32 1
  %83 = load i32, ptr %82, align 4
  store i32 %83, ptr %9, align 4
  %84 = load i32, ptr %9, align 4
  %85 = and i32 %84, 1008
  %86 = and i32 %85, 128
  %87 = icmp ne i32 %86, 0
  br i1 %87, label %88, label %90

88:                                               ; preds = %80
  %89 = load ptr, ptr %10, align 8
  call void @free(ptr noundef %89) #12
  br label %92

90:                                               ; preds = %80
  %91 = load ptr, ptr %10, align 8
  call void @_efree(ptr noundef %91) #12
  br label %92

92:                                               ; preds = %90, %88
  br label %93

93:                                               ; preds = %92, %71
  br label %94

94:                                               ; preds = %93, %60
  store i32 0, ptr %17, align 4
  br label %95

95:                                               ; preds = %167, %94
  %96 = load i32, ptr %17, align 4
  %97 = load ptr, ptr %15, align 8
  %98 = getelementptr inbounds %struct._zend_attribute, ptr %97, i32 0, i32 5
  %99 = load i32, ptr %98, align 4
  %100 = icmp ult i32 %96, %99
  br i1 %100, label %101, label %170

101:                                              ; preds = %95
  %102 = load ptr, ptr %15, align 8
  %103 = getelementptr inbounds %struct._zend_attribute, ptr %102, i32 0, i32 6
  %104 = load i32, ptr %17, align 4
  %105 = zext i32 %104 to i64
  %106 = getelementptr inbounds [1 x %struct.zend_attribute_arg], ptr %103, i64 0, i64 %105
  %107 = getelementptr inbounds %struct.zend_attribute_arg, ptr %106, i32 0, i32 0
  %108 = load ptr, ptr %107, align 8
  %109 = icmp ne ptr %108, null
  br i1 %109, label %110, label %149

110:                                              ; preds = %101
  %111 = load ptr, ptr %15, align 8
  %112 = getelementptr inbounds %struct._zend_attribute, ptr %111, i32 0, i32 6
  %113 = load i32, ptr %17, align 4
  %114 = zext i32 %113 to i64
  %115 = getelementptr inbounds [1 x %struct.zend_attribute_arg], ptr %112, i64 0, i64 %114
  %116 = getelementptr inbounds %struct.zend_attribute_arg, ptr %115, i32 0, i32 0
  %117 = load ptr, ptr %116, align 8
  store ptr %117, ptr %13, align 8
  %118 = load ptr, ptr %13, align 8
  %119 = getelementptr inbounds %struct._zend_refcounted_h, ptr %118, i32 0, i32 1
  %120 = load i32, ptr %119, align 4
  store i32 %120, ptr %11, align 4
  %121 = load i32, ptr %11, align 4
  %122 = and i32 %121, 1008
  %123 = and i32 %122, 64
  %124 = icmp ne i32 %123, 0
  br i1 %124, label %148, label %125

125:                                              ; preds = %110
  %126 = load ptr, ptr %13, align 8
  store ptr %126, ptr %2, align 8
  %127 = load ptr, ptr %2, align 8
  %128 = load i32, ptr %127, align 4
  %129 = icmp ugt i32 %128, 0
  call void @llvm.assume(i1 %129)
  %130 = load ptr, ptr %2, align 8
  %131 = load i32, ptr %130, align 4
  %132 = add i32 %131, -1
  store i32 %132, ptr %130, align 4
  %133 = icmp eq i32 %132, 0
  br i1 %133, label %134, label %147

134:                                              ; preds = %125
  %135 = load ptr, ptr %13, align 8
  %136 = getelementptr inbounds %struct._zend_refcounted_h, ptr %135, i32 0, i32 1
  %137 = load i32, ptr %136, align 4
  store i32 %137, ptr %12, align 4
  %138 = load i32, ptr %12, align 4
  %139 = and i32 %138, 1008
  %140 = and i32 %139, 128
  %141 = icmp ne i32 %140, 0
  br i1 %141, label %142, label %144

142:                                              ; preds = %134
  %143 = load ptr, ptr %13, align 8
  call void @free(ptr noundef %143) #12
  br label %146

144:                                              ; preds = %134
  %145 = load ptr, ptr %13, align 8
  call void @_efree(ptr noundef %145) #12
  br label %146

146:                                              ; preds = %144, %142
  br label %147

147:                                              ; preds = %146, %125
  br label %148

148:                                              ; preds = %147, %110
  br label %149

149:                                              ; preds = %148, %101
  %150 = load i8, ptr %16, align 1
  %151 = trunc i8 %150 to i1
  br i1 %151, label %152, label %159

152:                                              ; preds = %149
  %153 = load ptr, ptr %15, align 8
  %154 = getelementptr inbounds %struct._zend_attribute, ptr %153, i32 0, i32 6
  %155 = load i32, ptr %17, align 4
  %156 = zext i32 %155 to i64
  %157 = getelementptr inbounds [1 x %struct.zend_attribute_arg], ptr %154, i64 0, i64 %156
  %158 = getelementptr inbounds %struct.zend_attribute_arg, ptr %157, i32 0, i32 1
  call void @zval_internal_ptr_dtor(ptr noundef %158)
  br label %166

159:                                              ; preds = %149
  %160 = load ptr, ptr %15, align 8
  %161 = getelementptr inbounds %struct._zend_attribute, ptr %160, i32 0, i32 6
  %162 = load i32, ptr %17, align 4
  %163 = zext i32 %162 to i64
  %164 = getelementptr inbounds [1 x %struct.zend_attribute_arg], ptr %161, i64 0, i64 %163
  %165 = getelementptr inbounds %struct.zend_attribute_arg, ptr %164, i32 0, i32 1
  call void @zval_ptr_dtor(ptr noundef %165)
  br label %166

166:                                              ; preds = %159, %152
  br label %167

167:                                              ; preds = %166
  %168 = load i32, ptr %17, align 4
  %169 = add i32 %168, 1
  store i32 %169, ptr %17, align 4
  br label %95

170:                                              ; preds = %95
  %171 = load i8, ptr %16, align 1
  %172 = trunc i8 %171 to i1
  br i1 %172, label %173, label %175

173:                                              ; preds = %170
  %174 = load ptr, ptr %15, align 8
  call void @free(ptr noundef %174) #12
  br label %177

175:                                              ; preds = %170
  %176 = load ptr, ptr %15, align 8
  call void @_efree(ptr noundef %176)
  br label %177

177:                                              ; preds = %175, %173
  ret void
}