; Function Attrs: nounwind uwtable
define internal void @attr_free(ptr nocapture noundef readonly %0) #0 {
  %2 = load ptr, ptr %0, align 8
  %3 = getelementptr inbounds i8, ptr %2, i64 16
  %4 = load i32, ptr %3, align 8
  %.fr55 = freeze i32 %4
  %5 = and i32 %.fr55, 1
  %.not = icmp eq i32 %5, 0
  %6 = load ptr, ptr %2, align 8
  %7 = getelementptr inbounds i8, ptr %6, i64 4
  %8 = load i32, ptr %7, align 4
  %9 = and i32 %8, 64
  %.not46 = icmp eq i32 %9, 0
  br i1 %.not46, label %10, label %19

10:                                               ; preds = %1
  %11 = load i32, ptr %6, align 4
  %12 = icmp ne i32 %11, 0
  tail call void @llvm.assume(i1 %12)
  %13 = add i32 %11, -1
  store i32 %13, ptr %6, align 4
  %14 = icmp eq i32 %13, 0
  br i1 %14, label %15, label %19

15:                                               ; preds = %10
  %16 = and i32 %8, 128
  %.not47 = icmp eq i32 %16, 0
  br i1 %.not47, label %18, label %17

17:                                               ; preds = %15
  tail call void @free(ptr noundef nonnull %6) #16
  br label %19

18:                                               ; preds = %15
  tail call void @_efree(ptr noundef nonnull %6) #16
  br label %19

19:                                               ; preds = %10, %18, %17, %1
  %20 = getelementptr inbounds i8, ptr %2, i64 8
  %21 = load ptr, ptr %20, align 8
  %22 = getelementptr inbounds i8, ptr %21, i64 4
  %23 = load i32, ptr %22, align 4
  %24 = and i32 %23, 64
  %.not48 = icmp eq i32 %24, 0
  br i1 %.not48, label %25, label %34

25:                                               ; preds = %19
  %26 = load i32, ptr %21, align 4
  %27 = icmp ne i32 %26, 0
  tail call void @llvm.assume(i1 %27)
  %28 = add i32 %26, -1
  store i32 %28, ptr %21, align 4
  %29 = icmp eq i32 %28, 0
  br i1 %29, label %30, label %34

30:                                               ; preds = %25
  %31 = and i32 %23, 128
  %.not49 = icmp eq i32 %31, 0
  br i1 %.not49, label %33, label %32

32:                                               ; preds = %30
  tail call void @free(ptr noundef nonnull %21) #16
  br label %34

33:                                               ; preds = %30
  tail call void @_efree(ptr noundef nonnull %21) #16
  br label %34

34:                                               ; preds = %25, %33, %32, %19
  %35 = getelementptr inbounds i8, ptr %2, i64 28
  %36 = load i32, ptr %35, align 4
  %.not54 = icmp eq i32 %36, 0
  br i1 %.not54, label %._crit_edge, label %.lr.ph

.lr.ph:                                           ; preds = %34
  %37 = getelementptr inbounds i8, ptr %2, i64 32
  br i1 %.not, label %.lr.ph.split.us, label %.lr.ph.split

.lr.ph.split.us:                                  ; preds = %.lr.ph, %53
  %indvars.iv58 = phi i64 [ %indvars.iv.next59, %53 ], [ 0, %.lr.ph ]
  %38 = getelementptr inbounds [1 x %struct.zend_attribute_arg], ptr %37, i64 0, i64 %indvars.iv58
  %39 = load ptr, ptr %38, align 8
  %.not50.us = icmp eq ptr %39, null
  br i1 %.not50.us, label %53, label %40

40:                                               ; preds = %.lr.ph.split.us
  %41 = getelementptr inbounds i8, ptr %39, i64 4
  %42 = load i32, ptr %41, align 4
  %43 = and i32 %42, 64
  %.not51.us = icmp eq i32 %43, 0
  br i1 %.not51.us, label %44, label %53

44:                                               ; preds = %40
  %45 = load i32, ptr %39, align 4
  %46 = icmp ne i32 %45, 0
  tail call void @llvm.assume(i1 %46)
  %47 = add i32 %45, -1
  store i32 %47, ptr %39, align 4
  %48 = icmp eq i32 %47, 0
  br i1 %48, label %49, label %53

49:                                               ; preds = %44
  %50 = and i32 %42, 128
  %.not52.us = icmp eq i32 %50, 0
  br i1 %.not52.us, label %52, label %51

51:                                               ; preds = %49
  tail call void @free(ptr noundef nonnull %39) #16
  br label %53

52:                                               ; preds = %49
  tail call void @_efree(ptr noundef nonnull %39) #16
  br label %53

53:                                               ; preds = %52, %51, %44, %40, %.lr.ph.split.us
  %54 = getelementptr inbounds i8, ptr %38, i64 8
  tail call void @zval_ptr_dtor(ptr noundef nonnull %54) #16
  %indvars.iv.next59 = add nuw nsw i64 %indvars.iv58, 1
  %55 = load i32, ptr %35, align 4
  %56 = zext i32 %55 to i64
  %57 = icmp ult i64 %indvars.iv.next59, %56
  br i1 %57, label %.lr.ph.split.us, label %._crit_edge

.lr.ph.split:                                     ; preds = %.lr.ph, %73
  %indvars.iv = phi i64 [ %indvars.iv.next, %73 ], [ 0, %.lr.ph ]
  %58 = getelementptr inbounds [1 x %struct.zend_attribute_arg], ptr %37, i64 0, i64 %indvars.iv
  %59 = load ptr, ptr %58, align 8
  %.not50 = icmp eq ptr %59, null
  br i1 %.not50, label %73, label %60

60:                                               ; preds = %.lr.ph.split
  %61 = getelementptr inbounds i8, ptr %59, i64 4
  %62 = load i32, ptr %61, align 4
  %63 = and i32 %62, 64
  %.not51 = icmp eq i32 %63, 0
  br i1 %.not51, label %64, label %73

64:                                               ; preds = %60
  %65 = load i32, ptr %59, align 4
  %66 = icmp ne i32 %65, 0
  tail call void @llvm.assume(i1 %66)
  %67 = add i32 %65, -1
  store i32 %67, ptr %59, align 4
  %68 = icmp eq i32 %67, 0
  br i1 %68, label %69, label %73

69:                                               ; preds = %64
  %70 = and i32 %62, 128
  %.not52 = icmp eq i32 %70, 0
  br i1 %.not52, label %72, label %71

71:                                               ; preds = %69
  tail call void @free(ptr noundef nonnull %59) #16
  br label %73

72:                                               ; preds = %69
  tail call void @_efree(ptr noundef nonnull %59) #16
  br label %73

73:                                               ; preds = %60, %71, %72, %64, %.lr.ph.split
  %74 = getelementptr inbounds i8, ptr %58, i64 8
  tail call void @zval_internal_ptr_dtor(ptr noundef nonnull %74) #16
  %indvars.iv.next = add nuw nsw i64 %indvars.iv, 1
  %75 = load i32, ptr %35, align 4
  %76 = zext i32 %75 to i64
  %77 = icmp ult i64 %indvars.iv.next, %76
  br i1 %77, label %.lr.ph.split, label %._crit_edge

._crit_edge:                                      ; preds = %73, %53, %34
  br i1 %.not, label %79, label %78

78:                                               ; preds = %._crit_edge
  tail call void @free(ptr noundef nonnull %2) #16
  br label %80

79:                                               ; preds = %._crit_edge
  tail call void @_efree(ptr noundef nonnull %2) #16
  br label %80

80:                                               ; preds = %79, %78
  ret void
}